; Function Attrs: mustprogress uwtable
define hidden void @_ZN12mpff_manager8allocateER4mpff(ptr noundef nonnull align 8 dereferenceable(89) %0, ptr noundef nonnull align 4 captures(none) dereferenceable(8) %1) local_unnamed_addr #3 align 2 {
  %3 = getelementptr inbounds nuw i8, ptr %0, i64 24
  %4 = getelementptr inbounds nuw i8, ptr %0, i64 32
  %5 = load ptr, ptr %4, align 8, !tbaa !3
  %6 = icmp eq ptr %5, null
  br i1 %6, label %_ZNK6vectorIjLb0EjE5emptyEv.exit.thread.i, label %_ZNK6vectorIjLb0EjE5emptyEv.exit.i

_ZNK6vectorIjLb0EjE5emptyEv.exit.i:               ; preds = %2
  %7 = getelementptr inbounds i8, ptr %5, i64 -4
  %8 = load i32, ptr %7, align 4, !tbaa !21
  %9 = icmp eq i32 %8, 0
  br i1 %9, label %_ZNK6vectorIjLb0EjE5emptyEv.exit.thread.i, label %_ZN6vectorIjLb0EjE4backEv.exit.i

_ZNK6vectorIjLb0EjE5emptyEv.exit.thread.i:        ; preds = %_ZNK6vectorIjLb0EjE5emptyEv.exit.i, %2
  %10 = load i32, ptr %3, align 8, !tbaa !9
  %11 = add i32 %10, 1
  store i32 %11, ptr %3, align 8, !tbaa !9
  br label %_ZN6id_gen2mkEv.exit

_ZN6vectorIjLb0EjE4backEv.exit.i:                 ; preds = %_ZNK6vectorIjLb0EjE5emptyEv.exit.i
  %12 = add i32 %8, -1
  %13 = zext i32 %12 to i64
  %14 = getelementptr inbounds nuw i32, ptr %5, i64 %13
  %15 = load i32, ptr %14, align 4, !tbaa !21
  store i32 %12, ptr %7, align 4, !tbaa !21
  br label %_ZN6id_gen2mkEv.exit

_ZN6id_gen2mkEv.exit:                             ; preds = %_ZNK6vectorIjLb0EjE5emptyEv.exit.thread.i, %_ZN6vectorIjLb0EjE4backEv.exit.i
  %.0.i = phi i32 [ %10, %_ZNK6vectorIjLb0EjE5emptyEv.exit.thread.i ], [ %15, %_ZN6vectorIjLb0EjE4backEv.exit.i ]
  tail call void @_ZN12mpff_manager15ensure_capacityEj(ptr noundef nonnull align 8 dereferenceable(89) %0, i32 noundef %.0.i)
  %16 = load i32, ptr %1, align 4
  %17 = shl i32 %.0.i, 1
  %18 = and i32 %16, 1
  %19 = or disjoint i32 %18, %17
  store i32 %19, ptr %1, align 4
  ret void
}